target datalayout = "e-m:e-p270:32:32-p271:32:32-p272:64:64-i64:64-i128:128-f80:128-n8:16:32:64-S128"
target triple = "x86_64-pc-linux-gnu"

%"class.std::__cxx11::basic_string" = type { %"struct.std::__cxx11::basic_string<char>::_Alloc_hider", i64, %union.anon }
%"struct.std::__cxx11::basic_string<char>::_Alloc_hider" = type { ptr }
%union.anon = type { i64, [8 x i8] }
%"class.gmx::ColvarsOptions" = type { %"class.gmx::IMdpOptionProvider", i8, %"class.std::__cxx11::basic_string", %"class.std::__cxx11::basic_string", %"class.std::__cxx11::basic_string", %"class.std::__cxx11::basic_string", %"class.std::__cxx11::basic_string", %"class.std::__cxx11::basic_string", %"class.std::__cxx11::basic_string", %"class.std::__cxx11::basic_string", i32, %"class.std::__cxx11::basic_string", %struct.t_atoms, %"class.gmx::ArrayRef", i32, [3 x [3 x float]], %"class.std::vector", %"class.std::map", float, ptr, %"class.std::__cxx11::basic_string" }
%"class.gmx::IMdpOptionProvider" = type { ptr }
%struct.t_atoms = type { i32, ptr, ptr, ptr, ptr, i32, ptr, ptr, i8, i8, i8, i8, i8 }
%"class.gmx::ArrayRef" = type { %"struct.gmx::ArrayRefIter", %"struct.gmx::ArrayRefIter" }
%"struct.gmx::ArrayRefIter" = type { ptr }
%"class.std::vector" = type { %"struct.std::_Vector_base" }
%"struct.std::_Vector_base" = type { %"struct.std::_Vector_base<gmx::BasicVector<float>, std::allocator<gmx::BasicVector<float>>>::_Vector_impl" }
%"struct.std::_Vector_base<gmx::BasicVector<float>, std::allocator<gmx::BasicVector<float>>>::_Vector_impl" = type { %"struct.std::_Vector_base<gmx::BasicVector<float>, std::allocator<gmx::BasicVector<float>>>::_Vector_impl_data" }
%"struct.std::_Vector_base<gmx::BasicVector<float>, std::allocator<gmx::BasicVector<float>>>::_Vector_impl_data" = type { ptr, ptr, ptr }
%"class.std::map" = type { %"class.std::_Rb_tree" }
%"class.std::_Rb_tree" = type { %"struct.std::_Rb_tree<std::__cxx11::basic_string<char>, std::pair<const std::__cxx11::basic_string<char>, std::__cxx11::basic_string<char>>, std::_Select1st<std::pair<const std::__cxx11::basic_string<char>, std::__cxx11::basic_string<char>>>, std::less<std::__cxx11::basic_string<char>>>::_Rb_tree_impl" }
%"struct.std::_Rb_tree<std::__cxx11::basic_string<char>, std::pair<const std::__cxx11::basic_string<char>, std::__cxx11::basic_string<char>>, std::_Select1st<std::pair<const std::__cxx11::basic_string<char>, std::__cxx11::basic_string<char>>>, std::less<std::__cxx11::basic_string<char>>>::_Rb_tree_impl" = type { [8 x i8], %"struct.std::_Rb_tree_header" }
%"struct.std::_Rb_tree_header" = type { %"struct.std::_Rb_tree_node_base", i64 }
%"struct.std::_Rb_tree_node_base" = type { i32, ptr, ptr, ptr }
%"struct.gmx::EnsembleTemperature" = type { %"class.std::optional" }
%"class.std::optional" = type { %"struct.std::_Optional_base" }
%"struct.std::_Optional_base" = type { %"struct.std::_Optional_payload" }
%"struct.std::_Optional_payload" = type { %"struct.std::_Optional_payload_base.base", [3 x i8] }
%"struct.std::_Optional_payload_base.base" = type <{ %"union.std::_Optional_payload_base<float>::_Storage", i8 }>
%"union.std::_Optional_payload_base<float>::_Storage" = type { float }
%"struct.std::_Optional_payload_base" = type <{ %"union.std::_Optional_payload_base<float>::_Storage", i8, [3 x i8] }>

@_ZTVSt9exception = available_externally unnamed_addr constant { [5 x ptr] } { [5 x ptr] [ptr null, ptr @_ZTISt9exception, ptr @_ZNSt9exceptionD1Ev, ptr @_ZNSt9exceptionD0Ev, ptr @_ZNKSt9exception4whatEv] }, align 8
@_ZTISt19bad_optional_access = linkonce_odr constant { ptr, ptr, ptr } { ptr getelementptr inbounds (ptr, ptr @_ZTVN10__cxxabiv120__si_class_type_infoE, i64 2), ptr @_ZTSSt19bad_optional_access, ptr @_ZTISt9exception }, comdat, align 8
@_ZTVSt19bad_optional_access = linkonce_odr unnamed_addr constant { [5 x ptr] } { [5 x ptr] [ptr null, ptr @_ZTISt19bad_optional_access, ptr @_ZNSt9exceptionD2Ev, ptr @_ZNSt19bad_optional_accessD0Ev, ptr @_ZNKSt19bad_optional_access4whatEv] }, comdat, align 8

; Function Attrs: mustprogress nounwind uwtable
define linkonce_odr void @_ZNSt9exceptionC2Ev(ptr noundef nonnull align 8 dereferenceable(8) %0) unnamed_addr #4 comdat align 2 {
  %2 = alloca ptr, align 8
  store ptr %0, ptr %2, align 8, !tbaa !492
  %3 = load ptr, ptr %2, align 8
  store ptr getelementptr inbounds inrange(-16, 24) ({ [5 x ptr] }, ptr @_ZTVSt9exception, i32 0, i32 0, i32 2), ptr %3, align 8, !tbaa !73
  ret void
}

; Function Attrs: mustprogress nounwind uwtable
define linkonce_odr void @_ZNSt19bad_optional_accessC2Ev(ptr noundef nonnull align 8 dereferenceable(8) %0) unnamed_addr #4 comdat align 2 {
  %2 = alloca ptr, align 8
  store ptr %0, ptr %2, align 8, !tbaa !763
  %3 = load ptr, ptr %2, align 8
  call void @_ZNSt9exceptionC2Ev(ptr noundef nonnull align 8 dereferenceable(8) %3) #5
  store ptr getelementptr inbounds inrange(-16, 24) ({ [5 x ptr] }, ptr @_ZTVSt19bad_optional_access, i32 0, i32 0, i32 2), ptr %3, align 8, !tbaa !73
  ret void
}

; Function Attrs: mustprogress nounwind uwtable
define linkonce_odr noundef nonnull align 4 dereferenceable(4) ptr @_ZNKSt22_Optional_payload_baseIfE6_M_getEv(ptr noundef nonnull align 4 dereferenceable(5) %0) #4 comdat align 2 {
  %2 = alloca ptr, align 8
  store ptr %0, ptr %2, align 8, !tbaa !761
  %3 = load ptr, ptr %2, align 8
  %4 = getelementptr inbounds nuw %"struct.std::_Optional_payload_base", ptr %3, i32 0, i32 0
  ret ptr %4
}

; Function Attrs: inlinehint mustprogress noreturn uwtable
define linkonce_odr void @_ZSt27__throw_bad_optional_accessv() #22 comdat {
  %1 = call ptr @__cxa_allocate_exception(i64 8) #5
  call void @llvm.memset.p0.i64(ptr align 16 %1, i8 0, i64 8, i1 false)
  call void @_ZNSt19bad_optional_accessC2Ev(ptr noundef nonnull align 8 dereferenceable(8) %1) #5
  call void @__cxa_throw(ptr %1, ptr @_ZTISt19bad_optional_access, ptr @_ZNSt9exceptionD2Ev) #24
  unreachable
}

; Function Attrs: mustprogress nounwind uwtable
define linkonce_odr noundef nonnull align 4 dereferenceable(4) ptr @_ZNKSt19_Optional_base_implIfSt14_Optional_baseIfLb1ELb1EEE6_M_getEv(ptr noundef nonnull align 1 dereferenceable(1) %0) #4 comdat align 2 {
  %2 = alloca ptr, align 8
  store ptr %0, ptr %2, align 8, !tbaa !757
  %3 = load ptr, ptr %2, align 8
  br label %4

4:                                                ; preds = %1
  br label %5

5:                                                ; preds = %4
  br label %6

6:                                                ; preds = %5
  %7 = getelementptr inbounds nuw %"struct.std::_Optional_base", ptr %3, i32 0, i32 0
  %8 = call noundef nonnull align 4 dereferenceable(4) ptr @_ZNKSt22_Optional_payload_baseIfE6_M_getEv(ptr noundef nonnull align 4 dereferenceable(5) %7) #5
  ret ptr %8
}

; Function Attrs: mustprogress nounwind uwtable
define linkonce_odr noundef zeroext i1 @_ZNKSt19_Optional_base_implIfSt14_Optional_baseIfLb1ELb1EEE13_M_is_engagedEv(ptr noundef nonnull align 1 dereferenceable(1) %0) #4 comdat align 2 {
  %2 = alloca ptr, align 8
  store ptr %0, ptr %2, align 8, !tbaa !757
  %3 = load ptr, ptr %2, align 8
  %4 = getelementptr inbounds nuw %"struct.std::_Optional_base", ptr %3, i32 0, i32 0
  %5 = getelementptr inbounds nuw %"struct.std::_Optional_payload_base", ptr %4, i32 0, i32 1
  %6 = load i8, ptr %5, align 4, !tbaa !759, !range !51, !noundef !52
  %7 = trunc i8 %6 to i1
  ret i1 %7
}

; Function Attrs: mustprogress uwtable
define linkonce_odr noundef nonnull align 4 dereferenceable(4) ptr @_ZNKRSt8optionalIfE5valueEv(ptr noundef nonnull align 4 dereferenceable(8) %0) #0 comdat align 2 {
  %2 = alloca ptr, align 8
  store ptr %0, ptr %2, align 8, !tbaa !755
  %3 = load ptr, ptr %2, align 8
  %4 = call noundef zeroext i1 @_ZNKSt19_Optional_base_implIfSt14_Optional_baseIfLb1ELb1EEE13_M_is_engagedEv(ptr noundef nonnull align 1 dereferenceable(1) %3) #5
  br i1 %4, label %5, label %7

5:                                                ; preds = %1
  %6 = call noundef nonnull align 4 dereferenceable(4) ptr @_ZNKSt19_Optional_base_implIfSt14_Optional_baseIfLb1ELb1EEE6_M_getEv(ptr noundef nonnull align 1 dereferenceable(1) %3) #5
  ret ptr %6

7:                                                ; preds = %1
  call void @_ZSt27__throw_bad_optional_accessv() #24
  unreachable
}

; Function Attrs: mustprogress nounwind uwtable
define linkonce_odr noundef zeroext i1 @_ZNKSt8optionalIfEcvbEv(ptr noundef nonnull align 4 dereferenceable(8) %0) #4 comdat align 2 {
  %2 = alloca ptr, align 8
  store ptr %0, ptr %2, align 8, !tbaa !755
  %3 = load ptr, ptr %2, align 8
  %4 = call noundef zeroext i1 @_ZNKSt19_Optional_base_implIfSt14_Optional_baseIfLb1ELb1EEE13_M_is_engagedEv(ptr noundef nonnull align 1 dereferenceable(1) %3) #5
  ret i1 %4
}

; Function Attrs: mustprogress uwtable
define void @_ZN3gmx14ColvarsOptions18processTemperatureERKNS_19EnsembleTemperatureE(ptr noundef nonnull align 8 dereferenceable(560) %0, ptr noundef nonnull align 4 dereferenceable(8) %1) #0 align 2 {
  %3 = alloca ptr, align 8
  %4 = alloca ptr, align 8
  store ptr %0, ptr %3, align 8, !tbaa !4
  store ptr %1, ptr %4, align 8, !tbaa !753
  %5 = load ptr, ptr %3, align 8
  %6 = load ptr, ptr %4, align 8, !tbaa !753
  %7 = getelementptr inbounds nuw %"struct.gmx::EnsembleTemperature", ptr %6, i32 0, i32 0
  %8 = call noundef zeroext i1 @_ZNKSt8optionalIfEcvbEv(ptr noundef nonnull align 4 dereferenceable(8) %7) #5
  br i1 %8, label %9, label %15

9:                                                ; preds = %2
  %10 = load ptr, ptr %4, align 8, !tbaa !753
  %11 = getelementptr inbounds nuw %"struct.gmx::EnsembleTemperature", ptr %10, i32 0, i32 0
  %12 = call noundef nonnull align 4 dereferenceable(4) ptr @_ZNKRSt8optionalIfE5valueEv(ptr noundef nonnull align 4 dereferenceable(8) %11)
  %13 = load float, ptr %12, align 4, !tbaa !449
  %14 = getelementptr inbounds nuw %"class.gmx::ColvarsOptions", ptr %5, i32 0, i32 18
  store float %13, ptr %14, align 8, !tbaa !415
  br label %17

15:                                               ; preds = %2
  %16 = getelementptr inbounds nuw %"class.gmx::ColvarsOptions", ptr %5, i32 0, i32 18
  store float -1.000000e+00, ptr %16, align 8, !tbaa !415
  br label %17

17:                                               ; preds = %15, %9
  ret void
}