; Function Attrs: mustprogress nofree norecurse nosync nounwind willreturn memory(argmem: readwrite) uwtable
define void @_ZN3gmx14ColvarsOptions18processTemperatureERKNS_19EnsembleTemperatureE(ptr noundef nonnull writeonly align 8 captures(none) dereferenceable(560) initializes((512, 516)) %0, ptr noundef nonnull readonly align 4 captures(none) dereferenceable(8) %1) local_unnamed_addr #21 align 2 {
_ZNKRSt8optionalIfE5valueEv.exit:
  %2 = getelementptr inbounds nuw i8, ptr %1, i64 4
  %3 = load i8, ptr %2, align 4, !tbaa !513, !range !126, !noundef !127
  %4 = trunc nuw i8 %3 to i1
  %5 = load float, ptr %1, align 4
  %spec.select = select i1 %4, float %5, float -1.000000e+00
  %6 = getelementptr inbounds nuw i8, ptr %0, i64 512
  store float %spec.select, ptr %6, align 8, !tbaa !304
  ret void
}